target datalayout = "e-m:e-p270:32:32-p271:32:32-p272:64:64-i64:64-i128:128-f80:128-n8:16:32:64-S128"
target triple = "x86_64-pc-linux-gnu"

@.str = private unnamed_addr constant [26 x i8] c"Parameter '%s' is invalid\00", align 1
@.str.3 = private unnamed_addr constant [5 x i8] c"name\00", align 1

; Function Attrs: nounwind uwtable
define hidden i32 @SDL_GetScancodeFromName_REAL(ptr noundef %0) #0 {
  %2 = alloca i32, align 4
  %3 = alloca ptr, align 8
  %4 = alloca i32, align 4
  %5 = alloca i32, align 4
  store ptr %0, ptr %3, align 8
  call void @llvm.lifetime.start.p0(i64 4, ptr %4) #4
  %6 = load ptr, ptr %3, align 8
  %7 = icmp ne ptr %6, null
  br i1 %7, label %8, label %12

8:                                                ; preds = %1
  %9 = load ptr, ptr %3, align 8
  %10 = load i8, ptr %9, align 1
  %11 = icmp ne i8 %10, 0
  br i1 %11, label %14, label %12

12:                                               ; preds = %8, %1
  %13 = call zeroext i1 (ptr, ...) @SDL_SetError_REAL(ptr noundef @.str, ptr noundef @.str.3)
  store i32 0, ptr %2, align 4
  store i32 1, ptr %5, align 4
  br label %42

14:                                               ; preds = %8
  store i32 0, ptr %4, align 4
  br label %15

15:                                               ; preds = %37, %14
  %16 = load i32, ptr %4, align 4
  %17 = sext i32 %16 to i64
  %18 = icmp ult i64 %17, 512
  br i1 %18, label %19, label %40

19:                                               ; preds = %15
  %20 = load i32, ptr %4, align 4
  %21 = sext i32 %20 to i64
  %22 = getelementptr inbounds [512 x ptr], ptr @SDL_scancode_names, i64 0, i64 %21
  %23 = load ptr, ptr %22, align 8
  %24 = icmp ne ptr %23, null
  br i1 %24, label %26, label %25

25:                                               ; preds = %19
  br label %37

26:                                               ; preds = %19
  %27 = load ptr, ptr %3, align 8
  %28 = load i32, ptr %4, align 4
  %29 = sext i32 %28 to i64
  %30 = getelementptr inbounds [512 x ptr], ptr @SDL_scancode_names, i64 0, i64 %29
  %31 = load ptr, ptr %30, align 8
  %32 = call i32 @SDL_strcasecmp_REAL(ptr noundef %27, ptr noundef %31)
  %33 = icmp eq i32 %32, 0
  br i1 %33, label %34, label %36

34:                                               ; preds = %26
  %35 = load i32, ptr %4, align 4
  store i32 %35, ptr %2, align 4
  store i32 1, ptr %5, align 4
  br label %42

36:                                               ; preds = %26
  br label %37

37:                                               ; preds = %36, %25
  %38 = load i32, ptr %4, align 4
  %39 = add nsw i32 %38, 1
  store i32 %39, ptr %4, align 4
  br label %15, !llvm.loop !9

40:                                               ; preds = %15
  %41 = call zeroext i1 (ptr, ...) @SDL_SetError_REAL(ptr noundef @.str, ptr noundef @.str.3)
  store i32 0, ptr %2, align 4
  store i32 1, ptr %5, align 4
  br label %42

42:                                               ; preds = %40, %34, %12
  call void @llvm.lifetime.end.p0(i64 4, ptr %4) #4
  %43 = load i32, ptr %2, align 4
  ret i32 %43
}