; Function Attrs: nounwind uwtable
define hidden range(i32 0, 512) i32 @SDL_GetScancodeFromName_REAL(ptr noundef %0) local_unnamed_addr #0 {
  %.not = icmp eq ptr %0, null
  br i1 %.not, label %4, label %2

2:                                                ; preds = %1
  %3 = load i8, ptr %0, align 1
  %.not12 = icmp eq i8 %3, 0
  br i1 %.not12, label %4, label %.preheader

4:                                                ; preds = %2, %1
  %5 = tail call zeroext i1 (ptr, ...) @SDL_SetError_REAL(ptr noundef nonnull @.str, ptr noundef nonnull @.str.3) #5
  br label %.loopexit

.preheader:                                       ; preds = %2, %11
  %indvars.iv = phi i64 [ %indvars.iv.next, %11 ], [ 0, %2 ]
  %6 = getelementptr inbounds nuw [512 x ptr], ptr @SDL_scancode_names, i64 0, i64 %indvars.iv
  %7 = load ptr, ptr %6, align 8
  %.not13 = icmp eq ptr %7, null
  br i1 %.not13, label %11, label %8

8:                                                ; preds = %.preheader
  %9 = tail call i32 @SDL_strcasecmp_REAL(ptr noundef nonnull %0, ptr noundef nonnull %7) #5
  %10 = icmp eq i32 %9, 0
  br i1 %10, label %.loopexit.loopexit, label %11

11:                                               ; preds = %8, %.preheader
  %indvars.iv.next = add nuw nsw i64 %indvars.iv, 1
  %exitcond.not = icmp eq i64 %indvars.iv.next, 512
  br i1 %exitcond.not, label %12, label %.preheader, !llvm.loop !7

12:                                               ; preds = %11
  %13 = tail call zeroext i1 (ptr, ...) @SDL_SetError_REAL(ptr noundef nonnull @.str, ptr noundef nonnull @.str.3) #5
  br label %.loopexit

.loopexit.loopexit:                               ; preds = %8
  %14 = trunc nuw nsw i64 %indvars.iv to i32
  br label %.loopexit

.loopexit:                                        ; preds = %.loopexit.loopexit, %12, %4
  %.08 = phi i32 [ 0, %12 ], [ 0, %4 ], [ %14, %.loopexit.loopexit ]
  ret i32 %.08
}